target datalayout = "e-m:e-p270:32:32-p271:32:32-p272:64:64-i64:64-i128:128-f80:128-n8:16:32:64-S128"
target triple = "x86_64-pc-linux-gnu"

%struct._zend_refcounted_h = type { i32, %union.anon }
%union.anon = type { i32 }
%struct._zend_internal_function = type { i8, [3 x i8], i32, ptr, ptr, ptr, i32, i32, ptr, ptr, ptr, ptr, i32, ptr, ptr, ptr, [6 x ptr] }
%struct._zend_string = type { %struct._zend_refcounted_h, i64, i64, [1 x i8] }

@xmlreader_open_fn = internal global %struct._zend_internal_function zeroinitializer, align 8
@.str.29 = private unnamed_addr constant [5 x i8] c"open\00", align 1
@xmlreader_xml_fn = internal global %struct._zend_internal_function zeroinitializer, align 8
@.str.30 = private unnamed_addr constant [4 x i8] c"xml\00", align 1

; Function Attrs: nounwind uwtable
define internal ptr @xmlreader_get_method(ptr noundef %0, ptr noundef %1, ptr noundef %2) #0 {
  %4 = alloca ptr, align 8
  %5 = alloca ptr, align 8
  %6 = alloca ptr, align 8
  %7 = alloca ptr, align 8
  store ptr %0, ptr %5, align 8
  store ptr %1, ptr %6, align 8
  store ptr %2, ptr %7, align 8
  %8 = load ptr, ptr %6, align 8
  %9 = getelementptr inbounds %struct._zend_string, ptr %8, i32 0, i32 2
  %10 = load i64, ptr %9, align 8
  %11 = icmp eq i64 %10, 4
  br i1 %11, label %12, label %22

12:                                               ; preds = %3
  %13 = load ptr, ptr %6, align 8
  %14 = getelementptr inbounds %struct._zend_string, ptr %13, i32 0, i32 3
  %15 = getelementptr inbounds [1 x i8], ptr %14, i64 0, i64 0
  %16 = load ptr, ptr %6, align 8
  %17 = getelementptr inbounds %struct._zend_string, ptr %16, i32 0, i32 2
  %18 = load i64, ptr %17, align 8
  %19 = call i32 @zend_binary_strcasecmp(ptr noundef %15, i64 noundef %18, ptr noundef @.str.29, i64 noundef 4)
  %20 = icmp ne i32 %19, 0
  br i1 %20, label %22, label %21

21:                                               ; preds = %12
  store ptr @xmlreader_open_fn, ptr %4, align 8
  br label %43

22:                                               ; preds = %12, %3
  %23 = load ptr, ptr %6, align 8
  %24 = getelementptr inbounds %struct._zend_string, ptr %23, i32 0, i32 2
  %25 = load i64, ptr %24, align 8
  %26 = icmp eq i64 %25, 3
  br i1 %26, label %27, label %37

27:                                               ; preds = %22
  %28 = load ptr, ptr %6, align 8
  %29 = getelementptr inbounds %struct._zend_string, ptr %28, i32 0, i32 3
  %30 = getelementptr inbounds [1 x i8], ptr %29, i64 0, i64 0
  %31 = load ptr, ptr %6, align 8
  %32 = getelementptr inbounds %struct._zend_string, ptr %31, i32 0, i32 2
  %33 = load i64, ptr %32, align 8
  %34 = call i32 @zend_binary_strcasecmp(ptr noundef %30, i64 noundef %33, ptr noundef @.str.30, i64 noundef 3)
  %35 = icmp ne i32 %34, 0
  br i1 %35, label %37, label %36

36:                                               ; preds = %27
  store ptr @xmlreader_xml_fn, ptr %4, align 8
  br label %43

37:                                               ; preds = %27, %22
  br label %38

38:                                               ; preds = %37
  %39 = load ptr, ptr %5, align 8
  %40 = load ptr, ptr %6, align 8
  %41 = load ptr, ptr %7, align 8
  %42 = call ptr @zend_std_get_method(ptr noundef %39, ptr noundef %40, ptr noundef %41)
  store ptr %42, ptr %4, align 8
  br label %43

43:                                               ; preds = %38, %36, %21
  %44 = load ptr, ptr %4, align 8
  ret ptr %44
}