; Function Attrs: nounwind uwtable
define internal ptr @xmlreader_get_method(ptr noundef %0, ptr noundef %1, ptr noundef %2) #0 {
  %4 = getelementptr inbounds i8, ptr %1, i64 16
  %5 = load i64, ptr %4, align 8
  %6 = icmp eq i64 %5, 4
  br i1 %6, label %7, label %10

7:                                                ; preds = %3
  %8 = getelementptr inbounds i8, ptr %1, i64 24
  %9 = tail call i32 @zend_binary_strcasecmp(ptr noundef nonnull %8, i64 noundef 4, ptr noundef nonnull @.str.29, i64 noundef 4) #11
  %.not = icmp eq i32 %9, 0
  br i1 %.not, label %18, label %thread-pre-split

thread-pre-split:                                 ; preds = %7
  %.pr = load i64, ptr %4, align 8
  br label %10

10:                                               ; preds = %thread-pre-split, %3
  %11 = phi i64 [ %.pr, %thread-pre-split ], [ %5, %3 ]
  %12 = icmp eq i64 %11, 3
  br i1 %12, label %13, label %16

13:                                               ; preds = %10
  %14 = getelementptr inbounds i8, ptr %1, i64 24
  %15 = tail call i32 @zend_binary_strcasecmp(ptr noundef nonnull %14, i64 noundef 3, ptr noundef nonnull @.str.30, i64 noundef 3) #11
  %.not12 = icmp eq i32 %15, 0
  br i1 %.not12, label %18, label %16

16:                                               ; preds = %10, %13
  %17 = tail call ptr @zend_std_get_method(ptr noundef %0, ptr noundef nonnull %1, ptr noundef %2) #11
  br label %18

18:                                               ; preds = %13, %7, %16
  %.0 = phi ptr [ %17, %16 ], [ @xmlreader_open_fn, %7 ], [ @xmlreader_xml_fn, %13 ]
  ret ptr %.0
}